target datalayout = "e-m:e-p270:32:32-p271:32:32-p272:64:64-i64:64-i128:128-f80:128-n8:16:32:64-S128"
target triple = "x86_64-pc-linux-gnu"

%struct._cmsStage_struct = type { ptr, i32, i32, i32, i32, ptr, ptr, ptr, ptr, ptr }
%struct._cmsPipeline_struct = type { ptr, i32, i32, ptr, ptr, ptr, ptr, ptr, ptr, i32 }

; Function Attrs: nounwind uwtable
define hidden ptr @cmsPipelineGetPtrToLastStage(ptr noundef %0) #0 {
  %2 = alloca ptr, align 8
  %3 = alloca ptr, align 8
  %4 = alloca ptr, align 8
  store ptr %0, ptr %2, align 8
  store ptr null, ptr %4, align 8
  %5 = load ptr, ptr %2, align 8
  %6 = getelementptr inbounds %struct._cmsPipeline_struct, ptr %5, i32 0, i32 0
  %7 = load ptr, ptr %6, align 8
  store ptr %7, ptr %3, align 8
  br label %8

8:                                                ; preds = %13, %1
  %9 = load ptr, ptr %3, align 8
  %10 = icmp ne ptr %9, null
  br i1 %10, label %11, label %17

11:                                               ; preds = %8
  %12 = load ptr, ptr %3, align 8
  store ptr %12, ptr %4, align 8
  br label %13

13:                                               ; preds = %11
  %14 = load ptr, ptr %3, align 8
  %15 = getelementptr inbounds %struct._cmsStage_struct, ptr %14, i32 0, i32 9
  %16 = load ptr, ptr %15, align 8
  store ptr %16, ptr %3, align 8
  br label %8, !llvm.loop !49

17:                                               ; preds = %8
  %18 = load ptr, ptr %4, align 8
  ret ptr %18
}

; Function Attrs: nounwind uwtable
define hidden ptr @cmsPipelineGetPtrToFirstStage(ptr noundef %0) #0 {
  %2 = alloca ptr, align 8
  store ptr %0, ptr %2, align 8
  %3 = load ptr, ptr %2, align 8
  %4 = getelementptr inbounds %struct._cmsPipeline_struct, ptr %3, i32 0, i32 0
  %5 = load ptr, ptr %4, align 8
  ret ptr %5
}

; Function Attrs: nounwind uwtable
define internal i32 @BlessLUT(ptr noundef %0) #0 {
  %2 = alloca i32, align 4
  %3 = alloca ptr, align 8
  %4 = alloca ptr, align 8
  %5 = alloca ptr, align 8
  %6 = alloca ptr, align 8
  %7 = alloca ptr, align 8
  store ptr %0, ptr %3, align 8
  %8 = load ptr, ptr %3, align 8
  %9 = getelementptr inbounds %struct._cmsPipeline_struct, ptr %8, i32 0, i32 0
  %10 = load ptr, ptr %9, align 8
  %11 = icmp ne ptr %10, null
  br i1 %11, label %12, label %58

12:                                               ; preds = %1
  %13 = load ptr, ptr %3, align 8
  %14 = call ptr @cmsPipelineGetPtrToFirstStage(ptr noundef %13)
  store ptr %14, ptr %6, align 8
  %15 = load ptr, ptr %3, align 8
  %16 = call ptr @cmsPipelineGetPtrToLastStage(ptr noundef %15)
  store ptr %16, ptr %7, align 8
  %17 = load ptr, ptr %6, align 8
  %18 = icmp eq ptr %17, null
  br i1 %18, label %22, label %19

19:                                               ; preds = %12
  %20 = load ptr, ptr %7, align 8
  %21 = icmp eq ptr %20, null
  br i1 %21, label %22, label %23

22:                                               ; preds = %19, %12
  store i32 0, ptr %2, align 4
  br label %59

23:                                               ; preds = %19
  %24 = load ptr, ptr %6, align 8
  %25 = getelementptr inbounds %struct._cmsStage_struct, ptr %24, i32 0, i32 3
  %26 = load i32, ptr %25, align 8
  %27 = load ptr, ptr %3, align 8
  %28 = getelementptr inbounds %struct._cmsPipeline_struct, ptr %27, i32 0, i32 1
  store i32 %26, ptr %28, align 8
  %29 = load ptr, ptr %7, align 8
  %30 = getelementptr inbounds %struct._cmsStage_struct, ptr %29, i32 0, i32 4
  %31 = load i32, ptr %30, align 4
  %32 = load ptr, ptr %3, align 8
  %33 = getelementptr inbounds %struct._cmsPipeline_struct, ptr %32, i32 0, i32 2
  store i32 %31, ptr %33, align 4
  %34 = load ptr, ptr %6, align 8
  store ptr %34, ptr %4, align 8
  %35 = load ptr, ptr %4, align 8
  %36 = getelementptr inbounds %struct._cmsStage_struct, ptr %35, i32 0, i32 9
  %37 = load ptr, ptr %36, align 8
  store ptr %37, ptr %5, align 8
  br label %38

38:                                               ; preds = %50, %23
  %39 = load ptr, ptr %5, align 8
  %40 = icmp ne ptr %39, null
  br i1 %40, label %41, label %57

41:                                               ; preds = %38
  %42 = load ptr, ptr %5, align 8
  %43 = getelementptr inbounds %struct._cmsStage_struct, ptr %42, i32 0, i32 3
  %44 = load i32, ptr %43, align 8
  %45 = load ptr, ptr %4, align 8
  %46 = getelementptr inbounds %struct._cmsStage_struct, ptr %45, i32 0, i32 4
  %47 = load i32, ptr %46, align 4
  %48 = icmp ne i32 %44, %47
  br i1 %48, label %49, label %50

49:                                               ; preds = %41
  store i32 0, ptr %2, align 4
  br label %59

50:                                               ; preds = %41
  %51 = load ptr, ptr %5, align 8
  %52 = getelementptr inbounds %struct._cmsStage_struct, ptr %51, i32 0, i32 9
  %53 = load ptr, ptr %52, align 8
  store ptr %53, ptr %5, align 8
  %54 = load ptr, ptr %4, align 8
  %55 = getelementptr inbounds %struct._cmsStage_struct, ptr %54, i32 0, i32 9
  %56 = load ptr, ptr %55, align 8
  store ptr %56, ptr %4, align 8
  br label %38, !llvm.loop !43

57:                                               ; preds = %38
  br label %58

58:                                               ; preds = %57, %1
  store i32 1, ptr %2, align 4
  br label %59

59:                                               ; preds = %58, %49, %22
  %60 = load i32, ptr %2, align 4
  ret i32 %60
}

; Function Attrs: nounwind uwtable
define hidden void @cmsStageFree(ptr noundef %0) #0 {
  %2 = alloca ptr, align 8
  store ptr %0, ptr %2, align 8
  %3 = load ptr, ptr %2, align 8
  %4 = getelementptr inbounds %struct._cmsStage_struct, ptr %3, i32 0, i32 7
  %5 = load ptr, ptr %4, align 8
  %6 = icmp ne ptr %5, null
  br i1 %6, label %7, label %12

7:                                                ; preds = %1
  %8 = load ptr, ptr %2, align 8
  %9 = getelementptr inbounds %struct._cmsStage_struct, ptr %8, i32 0, i32 7
  %10 = load ptr, ptr %9, align 8
  %11 = load ptr, ptr %2, align 8
  call void %10(ptr noundef %11)
  br label %12

12:                                               ; preds = %7, %1
  %13 = load ptr, ptr %2, align 8
  %14 = getelementptr inbounds %struct._cmsStage_struct, ptr %13, i32 0, i32 0
  %15 = load ptr, ptr %14, align 8
  %16 = load ptr, ptr %2, align 8
  call void @_cmsFree(ptr noundef %15, ptr noundef %16)
  ret void
}

; Function Attrs: nounwind uwtable
define hidden void @cmsPipelineUnlinkStage(ptr noundef %0, i32 noundef %1, ptr noundef %2) #0 {
  %4 = alloca ptr, align 8
  %5 = alloca i32, align 4
  %6 = alloca ptr, align 8
  %7 = alloca ptr, align 8
  %8 = alloca ptr, align 8
  %9 = alloca ptr, align 8
  %10 = alloca ptr, align 8
  %11 = alloca ptr, align 8
  store ptr %0, ptr %4, align 8
  store i32 %1, ptr %5, align 4
  store ptr %2, ptr %6, align 8
  store ptr null, ptr %10, align 8
  %12 = load ptr, ptr %4, align 8
  %13 = getelementptr inbounds %struct._cmsPipeline_struct, ptr %12, i32 0, i32 0
  %14 = load ptr, ptr %13, align 8
  %15 = icmp eq ptr %14, null
  br i1 %15, label %16, label %22

16:                                               ; preds = %3
  %17 = load ptr, ptr %6, align 8
  %18 = icmp ne ptr %17, null
  br i1 %18, label %19, label %21

19:                                               ; preds = %16
  %20 = load ptr, ptr %6, align 8
  store ptr null, ptr %20, align 8
  br label %21

21:                                               ; preds = %19, %16
  br label %73

22:                                               ; preds = %3
  %23 = load i32, ptr %5, align 4
  switch i32 %23, label %61 [
    i32 0, label %24
    i32 1, label %36
  ]

24:                                               ; preds = %22
  %25 = load ptr, ptr %4, align 8
  %26 = getelementptr inbounds %struct._cmsPipeline_struct, ptr %25, i32 0, i32 0
  %27 = load ptr, ptr %26, align 8
  store ptr %27, ptr %11, align 8
  %28 = load ptr, ptr %11, align 8
  %29 = getelementptr inbounds %struct._cmsStage_struct, ptr %28, i32 0, i32 9
  %30 = load ptr, ptr %29, align 8
  %31 = load ptr, ptr %4, align 8
  %32 = getelementptr inbounds %struct._cmsPipeline_struct, ptr %31, i32 0, i32 0
  store ptr %30, ptr %32, align 8
  %33 = load ptr, ptr %11, align 8
  %34 = getelementptr inbounds %struct._cmsStage_struct, ptr %33, i32 0, i32 9
  store ptr null, ptr %34, align 8
  %35 = load ptr, ptr %11, align 8
  store ptr %35, ptr %10, align 8
  br label %62

36:                                               ; preds = %22
  store ptr null, ptr %9, align 8
  store ptr null, ptr %7, align 8
  %37 = load ptr, ptr %4, align 8
  %38 = getelementptr inbounds %struct._cmsPipeline_struct, ptr %37, i32 0, i32 0
  %39 = load ptr, ptr %38, align 8
  store ptr %39, ptr %8, align 8
  br label %40

40:                                               ; preds = %46, %36
  %41 = load ptr, ptr %8, align 8
  %42 = icmp ne ptr %41, null
  br i1 %42, label %43, label %50

43:                                               ; preds = %40
  %44 = load ptr, ptr %9, align 8
  store ptr %44, ptr %7, align 8
  %45 = load ptr, ptr %8, align 8
  store ptr %45, ptr %9, align 8
  br label %46

46:                                               ; preds = %43
  %47 = load ptr, ptr %8, align 8
  %48 = getelementptr inbounds %struct._cmsStage_struct, ptr %47, i32 0, i32 9
  %49 = load ptr, ptr %48, align 8
  store ptr %49, ptr %8, align 8
  br label %40, !llvm.loop !47

50:                                               ; preds = %40
  %51 = load ptr, ptr %9, align 8
  store ptr %51, ptr %10, align 8
  %52 = load ptr, ptr %7, align 8
  %53 = icmp ne ptr %52, null
  br i1 %53, label %54, label %57

54:                                               ; preds = %50
  %55 = load ptr, ptr %7, align 8
  %56 = getelementptr inbounds %struct._cmsStage_struct, ptr %55, i32 0, i32 9
  store ptr null, ptr %56, align 8
  br label %60

57:                                               ; preds = %50
  %58 = load ptr, ptr %4, align 8
  %59 = getelementptr inbounds %struct._cmsPipeline_struct, ptr %58, i32 0, i32 0
  store ptr null, ptr %59, align 8
  br label %60

60:                                               ; preds = %57, %54
  br label %62

61:                                               ; preds = %22
  br label %62

62:                                               ; preds = %61, %60, %24
  %63 = load ptr, ptr %6, align 8
  %64 = icmp ne ptr %63, null
  br i1 %64, label %65, label %68

65:                                               ; preds = %62
  %66 = load ptr, ptr %10, align 8
  %67 = load ptr, ptr %6, align 8
  store ptr %66, ptr %67, align 8
  br label %70

68:                                               ; preds = %62
  %69 = load ptr, ptr %10, align 8
  call void @cmsStageFree(ptr noundef %69)
  br label %70

70:                                               ; preds = %68, %65
  %71 = load ptr, ptr %4, align 8
  %72 = call i32 @BlessLUT(ptr noundef %71)
  br label %73

73:                                               ; preds = %70, %21
  ret void
}