; Function Attrs: nounwind uwtable
define hidden void @cmsPipelineUnlinkStage(ptr nocapture noundef %0, i32 noundef %1, ptr noundef writeonly %2) local_unnamed_addr #0 {
  %4 = load ptr, ptr %0, align 8
  %5 = icmp eq ptr %4, null
  br i1 %5, label %6, label %8

6:                                                ; preds = %3
  %.not29 = icmp eq ptr %2, null
  br i1 %.not29, label %BlessLUT.exit, label %7

7:                                                ; preds = %6
  store ptr null, ptr %2, align 8
  br label %BlessLUT.exit

8:                                                ; preds = %3
  switch i32 %1, label %16 [
    i32 0, label %9
    i32 1, label %.preheader
  ]

9:                                                ; preds = %8
  %10 = getelementptr inbounds i8, ptr %4, i64 56
  %11 = load ptr, ptr %10, align 8
  store ptr %11, ptr %0, align 8
  br label %.sink.split

.preheader:                                       ; preds = %8, %.preheader
  %.02332 = phi ptr [ %.02431, %.preheader ], [ null, %8 ]
  %.02431 = phi ptr [ %13, %.preheader ], [ %4, %8 ]
  %12 = getelementptr inbounds i8, ptr %.02431, i64 56
  %13 = load ptr, ptr %12, align 8
  %.not = icmp eq ptr %13, null
  br i1 %.not, label %14, label %.preheader, !llvm.loop !50

14:                                               ; preds = %.preheader
  %.not27 = icmp eq ptr %.02332, null
  %15 = getelementptr inbounds i8, ptr %.02332, i64 56
  %spec.select = select i1 %.not27, ptr %0, ptr %15
  br label %.sink.split

.sink.split:                                      ; preds = %14, %9
  %.sink = phi ptr [ %10, %9 ], [ %spec.select, %14 ]
  %.022.ph = phi ptr [ %4, %9 ], [ %.02431, %14 ]
  store ptr null, ptr %.sink, align 8
  br label %16

16:                                               ; preds = %.sink.split, %8
  %.022 = phi ptr [ null, %8 ], [ %.022.ph, %.sink.split ]
  %.not28 = icmp eq ptr %2, null
  br i1 %.not28, label %18, label %17

17:                                               ; preds = %16
  store ptr %.022, ptr %2, align 8
  br label %23

18:                                               ; preds = %16
  %19 = getelementptr inbounds i8, ptr %.022, i64 40
  %20 = load ptr, ptr %19, align 8
  %.not.i = icmp eq ptr %20, null
  br i1 %.not.i, label %cmsStageFree.exit, label %21

21:                                               ; preds = %18
  tail call void %20(ptr noundef nonnull %.022) #18
  br label %cmsStageFree.exit

cmsStageFree.exit:                                ; preds = %18, %21
  %22 = load ptr, ptr %.022, align 8
  tail call void @_cmsFree(ptr noundef %22, ptr noundef nonnull %.022) #18
  br label %23

23:                                               ; preds = %cmsStageFree.exit, %17
  %24 = load ptr, ptr %0, align 8
  %.not.i30 = icmp eq ptr %24, null
  br i1 %.not.i30, label %BlessLUT.exit, label %thread-pre-split.i

thread-pre-split.i:                               ; preds = %23, %thread-pre-split.i
  %.05.i23.i = phi ptr [ %.05.i.pr.i, %thread-pre-split.i ], [ %24, %23 ]
  %25 = getelementptr inbounds i8, ptr %.05.i23.i, i64 56
  %.05.i.pr.i = load ptr, ptr %25, align 8
  %.not.i.i = icmp eq ptr %.05.i.pr.i, null
  br i1 %.not.i.i, label %cmsPipelineGetPtrToLastStage.exit.i, label %thread-pre-split.i, !llvm.loop !43

cmsPipelineGetPtrToLastStage.exit.i:              ; preds = %thread-pre-split.i
  %26 = getelementptr inbounds i8, ptr %24, i64 16
  %27 = load i32, ptr %26, align 8
  %28 = getelementptr inbounds i8, ptr %0, i64 8
  store i32 %27, ptr %28, align 8
  %29 = getelementptr inbounds i8, ptr %.05.i23.i, i64 20
  %30 = load i32, ptr %29, align 4
  %31 = getelementptr inbounds i8, ptr %0, i64 12
  store i32 %30, ptr %31, align 4
  br label %BlessLUT.exit

BlessLUT.exit:                                    ; preds = %cmsPipelineGetPtrToLastStage.exit.i, %23, %6, %7
  ret void
}